
../build/stm32f446ret.elf:     file format elf32-littlearm


Disassembly of section .text:

080601d0 <main>:
 80601d0:	b082      	sub	sp, #8
 80601d2:	2300      	movs	r3, #0
 80601d4:	9301      	str	r3, [sp, #4]
 80601d6:	9b01      	ldr	r3, [sp, #4]
 80601d8:	3301      	adds	r3, #1
 80601da:	9301      	str	r3, [sp, #4]
 80601dc:	e7fb      	b.n	80601d6 <main+0x6>
 80601de:	bf00      	nop

080601e0 <HAL_IncTick>:
 80601e0:	4a03      	ldr	r2, [pc, #12]	@ (80601f0 <HAL_IncTick+0x10>)
 80601e2:	4b04      	ldr	r3, [pc, #16]	@ (80601f4 <HAL_IncTick+0x14>)
 80601e4:	6811      	ldr	r1, [r2, #0]
 80601e6:	781b      	ldrb	r3, [r3, #0]
 80601e8:	440b      	add	r3, r1
 80601ea:	6013      	str	r3, [r2, #0]
 80601ec:	4770      	bx	lr
 80601ee:	bf00      	nop
 80601f0:	20000004 	.word	0x20000004
 80601f4:	20000000 	.word	0x20000000

080601f8 <HAL_TIM_OC_DelayElapsedCallback>:
 80601f8:	4770      	bx	lr
 80601fa:	bf00      	nop

080601fc <HAL_TIM_IC_CaptureCallback>:
 80601fc:	4770      	bx	lr
 80601fe:	bf00      	nop

08060200 <HAL_TIM_PWM_PulseFinishedCallback>:
 8060200:	4770      	bx	lr
 8060202:	bf00      	nop

08060204 <HAL_TIM_TriggerCallback>:
 8060204:	4770      	bx	lr
 8060206:	bf00      	nop

08060208 <HAL_TIM_IRQHandler>:
 8060208:	6803      	ldr	r3, [r0, #0]
 806020a:	b570      	push	{r4, r5, r6, lr}
 806020c:	68de      	ldr	r6, [r3, #12]
 806020e:	691d      	ldr	r5, [r3, #16]
 8060210:	07a9      	lsls	r1, r5, #30
 8060212:	4604      	mov	r4, r0
 8060214:	d501      	bpl.n	806021a <HAL_TIM_IRQHandler+0x12>
 8060216:	07b2      	lsls	r2, r6, #30
 8060218:	d451      	bmi.n	80602be <HAL_TIM_IRQHandler+0xb6>
 806021a:	0769      	lsls	r1, r5, #29
 806021c:	d501      	bpl.n	8060222 <HAL_TIM_IRQHandler+0x1a>
 806021e:	0772      	lsls	r2, r6, #29
 8060220:	d43a      	bmi.n	8060298 <HAL_TIM_IRQHandler+0x90>
 8060222:	072b      	lsls	r3, r5, #28
 8060224:	d501      	bpl.n	806022a <HAL_TIM_IRQHandler+0x22>
 8060226:	0730      	lsls	r0, r6, #28
 8060228:	d424      	bmi.n	8060274 <HAL_TIM_IRQHandler+0x6c>
 806022a:	06ea      	lsls	r2, r5, #27
 806022c:	d501      	bpl.n	8060232 <HAL_TIM_IRQHandler+0x2a>
 806022e:	06f3      	lsls	r3, r6, #27
 8060230:	d410      	bmi.n	8060254 <HAL_TIM_IRQHandler+0x4c>
 8060232:	07e8      	lsls	r0, r5, #31
 8060234:	d501      	bpl.n	806023a <HAL_TIM_IRQHandler+0x32>
 8060236:	07f1      	lsls	r1, r6, #31
 8060238:	d457      	bmi.n	80602ea <HAL_TIM_IRQHandler+0xe2>
 806023a:	062a      	lsls	r2, r5, #24
 806023c:	d501      	bpl.n	8060242 <HAL_TIM_IRQHandler+0x3a>
 806023e:	0633      	lsls	r3, r6, #24
 8060240:	d45b      	bmi.n	80602fa <HAL_TIM_IRQHandler+0xf2>
 8060242:	0668      	lsls	r0, r5, #25
 8060244:	d501      	bpl.n	806024a <HAL_TIM_IRQHandler+0x42>
 8060246:	0671      	lsls	r1, r6, #25
 8060248:	d45f      	bmi.n	806030a <HAL_TIM_IRQHandler+0x102>
 806024a:	06aa      	lsls	r2, r5, #26
 806024c:	d501      	bpl.n	8060252 <HAL_TIM_IRQHandler+0x4a>
 806024e:	06b3      	lsls	r3, r6, #26
 8060250:	d442      	bmi.n	80602d8 <HAL_TIM_IRQHandler+0xd0>
 8060252:	bd70      	pop	{r4, r5, r6, pc}
 8060254:	6823      	ldr	r3, [r4, #0]
 8060256:	f06f 0210 	mvn.w	r2, #16
 806025a:	611a      	str	r2, [r3, #16]
 806025c:	2208      	movs	r2, #8
 806025e:	7722      	strb	r2, [r4, #28]
 8060260:	69db      	ldr	r3, [r3, #28]
 8060262:	f413 7f40 	tst.w	r3, #768	@ 0x300
 8060266:	4620      	mov	r0, r4
 8060268:	d063      	beq.n	8060332 <HAL_TIM_IRQHandler+0x12a>
 806026a:	f7ff ffc7 	bl	80601fc <HAL_TIM_IC_CaptureCallback>
 806026e:	2300      	movs	r3, #0
 8060270:	7723      	strb	r3, [r4, #28]
 8060272:	e7de      	b.n	8060232 <HAL_TIM_IRQHandler+0x2a>
 8060274:	6823      	ldr	r3, [r4, #0]
 8060276:	f06f 0208 	mvn.w	r2, #8
 806027a:	611a      	str	r2, [r3, #16]
 806027c:	2204      	movs	r2, #4
 806027e:	7722      	strb	r2, [r4, #28]
 8060280:	69db      	ldr	r3, [r3, #28]
 8060282:	0799      	lsls	r1, r3, #30
 8060284:	4620      	mov	r0, r4
 8060286:	d151      	bne.n	806032c <HAL_TIM_IRQHandler+0x124>
 8060288:	f7ff ffb6 	bl	80601f8 <HAL_TIM_OC_DelayElapsedCallback>
 806028c:	4620      	mov	r0, r4
 806028e:	f7ff ffb7 	bl	8060200 <HAL_TIM_PWM_PulseFinishedCallback>
 8060292:	2300      	movs	r3, #0
 8060294:	7723      	strb	r3, [r4, #28]
 8060296:	e7c8      	b.n	806022a <HAL_TIM_IRQHandler+0x22>
 8060298:	6823      	ldr	r3, [r4, #0]
 806029a:	f06f 0204 	mvn.w	r2, #4
 806029e:	611a      	str	r2, [r3, #16]
 80602a0:	2202      	movs	r2, #2
 80602a2:	7722      	strb	r2, [r4, #28]
 80602a4:	699b      	ldr	r3, [r3, #24]
 80602a6:	f413 7f40 	tst.w	r3, #768	@ 0x300
 80602aa:	4620      	mov	r0, r4
 80602ac:	d13b      	bne.n	8060326 <HAL_TIM_IRQHandler+0x11e>
 80602ae:	f7ff ffa3 	bl	80601f8 <HAL_TIM_OC_DelayElapsedCallback>
 80602b2:	4620      	mov	r0, r4
 80602b4:	f7ff ffa4 	bl	8060200 <HAL_TIM_PWM_PulseFinishedCallback>
 80602b8:	2300      	movs	r3, #0
 80602ba:	7723      	strb	r3, [r4, #28]
 80602bc:	e7b1      	b.n	8060222 <HAL_TIM_IRQHandler+0x1a>
 80602be:	f06f 0202 	mvn.w	r2, #2
 80602c2:	611a      	str	r2, [r3, #16]
 80602c4:	2201      	movs	r2, #1
 80602c6:	7702      	strb	r2, [r0, #28]
 80602c8:	699b      	ldr	r3, [r3, #24]
 80602ca:	079b      	lsls	r3, r3, #30
 80602cc:	d025      	beq.n	806031a <HAL_TIM_IRQHandler+0x112>
 80602ce:	f7ff ff95 	bl	80601fc <HAL_TIM_IC_CaptureCallback>
 80602d2:	2300      	movs	r3, #0
 80602d4:	7723      	strb	r3, [r4, #28]
 80602d6:	e7a0      	b.n	806021a <HAL_TIM_IRQHandler+0x12>
 80602d8:	6823      	ldr	r3, [r4, #0]
 80602da:	f06f 0220 	mvn.w	r2, #32
 80602de:	4620      	mov	r0, r4
 80602e0:	611a      	str	r2, [r3, #16]
 80602e2:	e8bd 4070 	ldmia.w	sp!, {r4, r5, r6, lr}
 80602e6:	f000 b82b 	b.w	8060340 <HAL_TIMEx_CommutCallback>
 80602ea:	6823      	ldr	r3, [r4, #0]
 80602ec:	f06f 0201 	mvn.w	r2, #1
 80602f0:	611a      	str	r2, [r3, #16]
 80602f2:	4620      	mov	r0, r4
 80602f4:	f000 f83c 	bl	8060370 <HAL_TIM_PeriodElapsedCallback>
 80602f8:	e79f      	b.n	806023a <HAL_TIM_IRQHandler+0x32>
 80602fa:	6823      	ldr	r3, [r4, #0]
 80602fc:	f06f 0280 	mvn.w	r2, #128	@ 0x80
 8060300:	611a      	str	r2, [r3, #16]
 8060302:	4620      	mov	r0, r4
 8060304:	f000 f81e 	bl	8060344 <HAL_TIMEx_BreakCallback>
 8060308:	e79b      	b.n	8060242 <HAL_TIM_IRQHandler+0x3a>
 806030a:	6823      	ldr	r3, [r4, #0]
 806030c:	f06f 0240 	mvn.w	r2, #64	@ 0x40
 8060310:	611a      	str	r2, [r3, #16]
 8060312:	4620      	mov	r0, r4
 8060314:	f7ff ff76 	bl	8060204 <HAL_TIM_TriggerCallback>
 8060318:	e797      	b.n	806024a <HAL_TIM_IRQHandler+0x42>
 806031a:	f7ff ff6d 	bl	80601f8 <HAL_TIM_OC_DelayElapsedCallback>
 806031e:	4620      	mov	r0, r4
 8060320:	f7ff ff6e 	bl	8060200 <HAL_TIM_PWM_PulseFinishedCallback>
 8060324:	e7d5      	b.n	80602d2 <HAL_TIM_IRQHandler+0xca>
 8060326:	f7ff ff69 	bl	80601fc <HAL_TIM_IC_CaptureCallback>
 806032a:	e7c5      	b.n	80602b8 <HAL_TIM_IRQHandler+0xb0>
 806032c:	f7ff ff66 	bl	80601fc <HAL_TIM_IC_CaptureCallback>
 8060330:	e7af      	b.n	8060292 <HAL_TIM_IRQHandler+0x8a>
 8060332:	f7ff ff61 	bl	80601f8 <HAL_TIM_OC_DelayElapsedCallback>
 8060336:	4620      	mov	r0, r4
 8060338:	f7ff ff62 	bl	8060200 <HAL_TIM_PWM_PulseFinishedCallback>
 806033c:	e797      	b.n	806026e <HAL_TIM_IRQHandler+0x66>
 806033e:	bf00      	nop

08060340 <HAL_TIMEx_CommutCallback>:
 8060340:	4770      	bx	lr
 8060342:	bf00      	nop

08060344 <HAL_TIMEx_BreakCallback>:
 8060344:	4770      	bx	lr
 8060346:	bf00      	nop

08060348 <SystemInit>:
 8060348:	4a07      	ldr	r2, [pc, #28]	@ (8060368 <SystemInit+0x20>)
 806034a:	4908      	ldr	r1, [pc, #32]	@ (806036c <SystemInit+0x24>)
 806034c:	f8d2 3088 	ldr.w	r3, [r2, #136]	@ 0x88
 8060350:	f443 0370 	orr.w	r3, r3, #15728640	@ 0xf00000
 8060354:	f8c2 3088 	str.w	r3, [r2, #136]	@ 0x88
 8060358:	680b      	ldr	r3, [r1, #0]
 806035a:	f103 4378 	add.w	r3, r3, #4160749568	@ 0xf8000000
 806035e:	f043 6300 	orr.w	r3, r3, #134217728	@ 0x8000000
 8060362:	6093      	str	r3, [r2, #8]
 8060364:	4770      	bx	lr
 8060366:	bf00      	nop
 8060368:	e000ed00 	.word	0xe000ed00
 806036c:	08060000 	.word	0x08060000

08060370 <HAL_TIM_PeriodElapsedCallback>:
 8060370:	4b03      	ldr	r3, [pc, #12]	@ (8060380 <HAL_TIM_PeriodElapsedCallback+0x10>)
 8060372:	6802      	ldr	r2, [r0, #0]
 8060374:	429a      	cmp	r2, r3
 8060376:	d000      	beq.n	806037a <HAL_TIM_PeriodElapsedCallback+0xa>
 8060378:	4770      	bx	lr
 806037a:	f7ff bf31 	b.w	80601e0 <HAL_IncTick>
 806037e:	bf00      	nop
 8060380:	40010000 	.word	0x40010000

08060384 <TIM1_UP_TIM10_IRQHandler>:
 8060384:	4801      	ldr	r0, [pc, #4]	@ (806038c <TIM1_UP_TIM10_IRQHandler+0x8>)
 8060386:	f7ff bf3f 	b.w	8060208 <HAL_TIM_IRQHandler>
 806038a:	bf00      	nop
 806038c:	20000008 	.word	0x20000008

08060390 <xTaskIncrementTick.part.0>:
 8060390:	e92d 4ff0 	stmdb	sp!, {r4, r5, r6, r7, r8, r9, sl, fp, lr}
 8060394:	4b63      	ldr	r3, [pc, #396]	@ (8060524 <xTaskIncrementTick.part.0+0x194>)
 8060396:	681c      	ldr	r4, [r3, #0]
 8060398:	3401      	adds	r4, #1
 806039a:	b083      	sub	sp, #12
 806039c:	601c      	str	r4, [r3, #0]
 806039e:	2c00      	cmp	r4, #0
 80603a0:	d078      	beq.n	8060494 <xTaskIncrementTick.part.0+0x104>
 80603a2:	4961      	ldr	r1, [pc, #388]	@ (8060528 <xTaskIncrementTick.part.0+0x198>)
 80603a4:	680b      	ldr	r3, [r1, #0]
 80603a6:	429c      	cmp	r4, r3
 80603a8:	f0c0 8081 	bcc.w	80604ae <xTaskIncrementTick.part.0+0x11e>
 80603ac:	4d5f      	ldr	r5, [pc, #380]	@ (806052c <xTaskIncrementTick.part.0+0x19c>)
 80603ae:	682b      	ldr	r3, [r5, #0]
 80603b0:	681b      	ldr	r3, [r3, #0]
 80603b2:	2b00      	cmp	r3, #0
 80603b4:	f000 80b0 	beq.w	8060518 <xTaskIncrementTick.part.0+0x188>
 80603b8:	f04f 0c00 	mov.w	ip, #0
 80603bc:	485c      	ldr	r0, [pc, #368]	@ (8060530 <xTaskIncrementTick.part.0+0x1a0>)
 80603be:	f8df e184 	ldr.w	lr, [pc, #388]	@ 8060544 <xTaskIncrementTick.part.0+0x1b4>
 80603c2:	4e5c      	ldr	r6, [pc, #368]	@ (8060534 <xTaskIncrementTick.part.0+0x1a4>)
 80603c4:	9101      	str	r1, [sp, #4]
 80603c6:	4667      	mov	r7, ip
 80603c8:	e057      	b.n	806047a <xTaskIncrementTick.part.0+0xea>
 80603ca:	e9d3 2a02 	ldrd	r2, sl, [r3, #8]
 80603ce:	f8d3 8014 	ldr.w	r8, [r3, #20]
 80603d2:	f8c2 a008 	str.w	sl, [r2, #8]
 80603d6:	f8ca 2004 	str.w	r2, [sl, #4]
 80603da:	f8d8 2004 	ldr.w	r2, [r8, #4]
 80603de:	428a      	cmp	r2, r1
 80603e0:	f8d8 2000 	ldr.w	r2, [r8]
 80603e4:	bf08      	it	eq
 80603e6:	f8c8 a004 	streq.w	sl, [r8, #4]
 80603ea:	3a01      	subs	r2, #1
 80603ec:	615f      	str	r7, [r3, #20]
 80603ee:	f8c8 2000 	str.w	r2, [r8]
 80603f2:	f8d3 8028 	ldr.w	r8, [r3, #40]	@ 0x28
 80603f6:	f1b8 0f00 	cmp.w	r8, #0
 80603fa:	d011      	beq.n	8060420 <xTaskIncrementTick.part.0+0x90>
 80603fc:	e9d3 2a07 	ldrd	r2, sl, [r3, #28]
 8060400:	f8c2 a008 	str.w	sl, [r2, #8]
 8060404:	f8ca 2004 	str.w	r2, [sl, #4]
 8060408:	f8d8 2004 	ldr.w	r2, [r8, #4]
 806040c:	454a      	cmp	r2, r9
 806040e:	f8d8 2000 	ldr.w	r2, [r8]
 8060412:	bf08      	it	eq
 8060414:	f8c8 a004 	streq.w	sl, [r8, #4]
 8060418:	3a01      	subs	r2, #1
 806041a:	629f      	str	r7, [r3, #40]	@ 0x28
 806041c:	f8c8 2000 	str.w	r2, [r8]
 8060420:	6ada      	ldr	r2, [r3, #44]	@ 0x2c
 8060422:	f8d6 b000 	ldr.w	fp, [r6]
 8060426:	eb02 0882 	add.w	r8, r2, r2, lsl #2
 806042a:	f04f 0901 	mov.w	r9, #1
 806042e:	eb00 0a88 	add.w	sl, r0, r8, lsl #2
 8060432:	fa09 f902 	lsl.w	r9, r9, r2
 8060436:	ea49 090b 	orr.w	r9, r9, fp
 806043a:	f8c6 9000 	str.w	r9, [r6]
 806043e:	f8da 9004 	ldr.w	r9, [sl, #4]
 8060442:	f8c3 9008 	str.w	r9, [r3, #8]
 8060446:	f8d9 b008 	ldr.w	fp, [r9, #8]
 806044a:	f8c3 b00c 	str.w	fp, [r3, #12]
 806044e:	f8cb 1004 	str.w	r1, [fp, #4]
 8060452:	f8c9 1008 	str.w	r1, [r9, #8]
 8060456:	f8c3 a014 	str.w	sl, [r3, #20]
 806045a:	f850 3028 	ldr.w	r3, [r0, r8, lsl #2]
 806045e:	f8de 1000 	ldr.w	r1, [lr]
 8060462:	3301      	adds	r3, #1
 8060464:	f840 3028 	str.w	r3, [r0, r8, lsl #2]
 8060468:	682b      	ldr	r3, [r5, #0]
 806046a:	6ac9      	ldr	r1, [r1, #44]	@ 0x2c
 806046c:	681b      	ldr	r3, [r3, #0]
 806046e:	428a      	cmp	r2, r1
 8060470:	bf88      	it	hi
 8060472:	f04c 0c01 	orrhi.w	ip, ip, #1
 8060476:	2b00      	cmp	r3, #0
 8060478:	d049      	beq.n	806050e <xTaskIncrementTick.part.0+0x17e>
 806047a:	682b      	ldr	r3, [r5, #0]
 806047c:	68db      	ldr	r3, [r3, #12]
 806047e:	68db      	ldr	r3, [r3, #12]
 8060480:	685a      	ldr	r2, [r3, #4]
 8060482:	4294      	cmp	r4, r2
 8060484:	f103 0104 	add.w	r1, r3, #4
 8060488:	f103 0918 	add.w	r9, r3, #24
 806048c:	d29d      	bcs.n	80603ca <xTaskIncrementTick.part.0+0x3a>
 806048e:	9901      	ldr	r1, [sp, #4]
 8060490:	600a      	str	r2, [r1, #0]
 8060492:	e011      	b.n	80604b8 <xTaskIncrementTick.part.0+0x128>
 8060494:	4b25      	ldr	r3, [pc, #148]	@ (806052c <xTaskIncrementTick.part.0+0x19c>)
 8060496:	681a      	ldr	r2, [r3, #0]
 8060498:	6812      	ldr	r2, [r2, #0]
 806049a:	b30a      	cbz	r2, 80604e0 <xTaskIncrementTick.part.0+0x150>
 806049c:	f04f 0350 	mov.w	r3, #80	@ 0x50
 80604a0:	f383 8811 	msr	BASEPRI, r3
 80604a4:	f3bf 8f6f 	isb	sy
 80604a8:	f3bf 8f4f 	dsb	sy
 80604ac:	e7fe      	b.n	80604ac <xTaskIncrementTick.part.0+0x11c>
 80604ae:	4820      	ldr	r0, [pc, #128]	@ (8060530 <xTaskIncrementTick.part.0+0x1a0>)
 80604b0:	f8df e090 	ldr.w	lr, [pc, #144]	@ 8060544 <xTaskIncrementTick.part.0+0x1b4>
 80604b4:	f04f 0c00 	mov.w	ip, #0
 80604b8:	f8de 3000 	ldr.w	r3, [lr]
 80604bc:	4a1e      	ldr	r2, [pc, #120]	@ (8060538 <xTaskIncrementTick.part.0+0x1a8>)
 80604be:	6adb      	ldr	r3, [r3, #44]	@ 0x2c
 80604c0:	6812      	ldr	r2, [r2, #0]
 80604c2:	eb03 0383 	add.w	r3, r3, r3, lsl #2
 80604c6:	f850 0023 	ldr.w	r0, [r0, r3, lsl #2]
 80604ca:	2801      	cmp	r0, #1
 80604cc:	bf98      	it	ls
 80604ce:	2a00      	cmpls	r2, #0
 80604d0:	bf14      	ite	ne
 80604d2:	2001      	movne	r0, #1
 80604d4:	2000      	moveq	r0, #0
 80604d6:	ea40 000c 	orr.w	r0, r0, ip
 80604da:	b003      	add	sp, #12
 80604dc:	e8bd 8ff0 	ldmia.w	sp!, {r4, r5, r6, r7, r8, r9, sl, fp, pc}
 80604e0:	4a16      	ldr	r2, [pc, #88]	@ (806053c <xTaskIncrementTick.part.0+0x1ac>)
 80604e2:	6818      	ldr	r0, [r3, #0]
 80604e4:	6811      	ldr	r1, [r2, #0]
 80604e6:	6019      	str	r1, [r3, #0]
 80604e8:	4915      	ldr	r1, [pc, #84]	@ (8060540 <xTaskIncrementTick.part.0+0x1b0>)
 80604ea:	6010      	str	r0, [r2, #0]
 80604ec:	680a      	ldr	r2, [r1, #0]
 80604ee:	3201      	adds	r2, #1
 80604f0:	600a      	str	r2, [r1, #0]
 80604f2:	681a      	ldr	r2, [r3, #0]
 80604f4:	6812      	ldr	r2, [r2, #0]
 80604f6:	b922      	cbnz	r2, 8060502 <xTaskIncrementTick.part.0+0x172>
 80604f8:	490b      	ldr	r1, [pc, #44]	@ (8060528 <xTaskIncrementTick.part.0+0x198>)
 80604fa:	f04f 33ff 	mov.w	r3, #4294967295	@ 0xffffffff
 80604fe:	600b      	str	r3, [r1, #0]
 8060500:	e750      	b.n	80603a4 <xTaskIncrementTick.part.0+0x14>
 8060502:	681b      	ldr	r3, [r3, #0]
 8060504:	4908      	ldr	r1, [pc, #32]	@ (8060528 <xTaskIncrementTick.part.0+0x198>)
 8060506:	68db      	ldr	r3, [r3, #12]
 8060508:	681b      	ldr	r3, [r3, #0]
 806050a:	600b      	str	r3, [r1, #0]
 806050c:	e74a      	b.n	80603a4 <xTaskIncrementTick.part.0+0x14>
 806050e:	9901      	ldr	r1, [sp, #4]
 8060510:	f04f 33ff 	mov.w	r3, #4294967295	@ 0xffffffff
 8060514:	600b      	str	r3, [r1, #0]
 8060516:	e7cf      	b.n	80604b8 <xTaskIncrementTick.part.0+0x128>
 8060518:	4805      	ldr	r0, [pc, #20]	@ (8060530 <xTaskIncrementTick.part.0+0x1a0>)
 806051a:	f8df e028 	ldr.w	lr, [pc, #40]	@ 8060544 <xTaskIncrementTick.part.0+0x1b4>
 806051e:	469c      	mov	ip, r3
 8060520:	e7f6      	b.n	8060510 <xTaskIncrementTick.part.0+0x180>
 8060522:	bf00      	nop
 8060524:	20000068 	.word	0x20000068
 8060528:	20000054 	.word	0x20000054
 806052c:	20000070 	.word	0x20000070
 8060530:	20000074 	.word	0x20000074
 8060534:	20000064 	.word	0x20000064
 8060538:	2000005c 	.word	0x2000005c
 806053c:	2000006c 	.word	0x2000006c
 8060540:	20000058 	.word	0x20000058
 8060544:	20000100 	.word	0x20000100

08060548 <xTaskIncrementTick>:
 8060548:	4b05      	ldr	r3, [pc, #20]	@ (8060560 <xTaskIncrementTick+0x18>)
 806054a:	681b      	ldr	r3, [r3, #0]
 806054c:	b90b      	cbnz	r3, 8060552 <xTaskIncrementTick+0xa>
 806054e:	f7ff bf1f 	b.w	8060390 <xTaskIncrementTick.part.0>
 8060552:	4a04      	ldr	r2, [pc, #16]	@ (8060564 <xTaskIncrementTick+0x1c>)
 8060554:	6813      	ldr	r3, [r2, #0]
 8060556:	3301      	adds	r3, #1
 8060558:	2000      	movs	r0, #0
 806055a:	6013      	str	r3, [r2, #0]
 806055c:	4770      	bx	lr
 806055e:	bf00      	nop
 8060560:	20000050 	.word	0x20000050
 8060564:	20000060 	.word	0x20000060

08060568 <vTaskSwitchContext>:
 8060568:	4b17      	ldr	r3, [pc, #92]	@ (80605c8 <vTaskSwitchContext+0x60>)
 806056a:	681b      	ldr	r3, [r3, #0]
 806056c:	b11b      	cbz	r3, 8060576 <vTaskSwitchContext+0xe>
 806056e:	4b17      	ldr	r3, [pc, #92]	@ (80605cc <vTaskSwitchContext+0x64>)
 8060570:	2201      	movs	r2, #1
 8060572:	601a      	str	r2, [r3, #0]
 8060574:	4770      	bx	lr
 8060576:	4915      	ldr	r1, [pc, #84]	@ (80605cc <vTaskSwitchContext+0x64>)
 8060578:	4a15      	ldr	r2, [pc, #84]	@ (80605d0 <vTaskSwitchContext+0x68>)
 806057a:	600b      	str	r3, [r1, #0]
 806057c:	6813      	ldr	r3, [r2, #0]
 806057e:	fab3 f383 	clz	r3, r3
 8060582:	b2db      	uxtb	r3, r3
 8060584:	f1c3 031f 	rsb	r3, r3, #31
 8060588:	eb03 0383 	add.w	r3, r3, r3, lsl #2
 806058c:	4911      	ldr	r1, [pc, #68]	@ (80605d4 <vTaskSwitchContext+0x6c>)
 806058e:	009a      	lsls	r2, r3, #2
 8060590:	eb01 0383 	add.w	r3, r1, r3, lsl #2
 8060594:	5888      	ldr	r0, [r1, r2]
 8060596:	b940      	cbnz	r0, 80605aa <vTaskSwitchContext+0x42>
 8060598:	f04f 0350 	mov.w	r3, #80	@ 0x50
 806059c:	f383 8811 	msr	BASEPRI, r3
 80605a0:	f3bf 8f6f 	isb	sy
 80605a4:	f3bf 8f4f 	dsb	sy
 80605a8:	e7fe      	b.n	80605a8 <vTaskSwitchContext+0x40>
 80605aa:	6858      	ldr	r0, [r3, #4]
 80605ac:	3208      	adds	r2, #8
 80605ae:	6840      	ldr	r0, [r0, #4]
 80605b0:	6058      	str	r0, [r3, #4]
 80605b2:	440a      	add	r2, r1
 80605b4:	4290      	cmp	r0, r2
 80605b6:	bf04      	itt	eq
 80605b8:	68d8      	ldreq	r0, [r3, #12]
 80605ba:	6058      	streq	r0, [r3, #4]
 80605bc:	4b06      	ldr	r3, [pc, #24]	@ (80605d8 <vTaskSwitchContext+0x70>)
 80605be:	68c2      	ldr	r2, [r0, #12]
 80605c0:	601a      	str	r2, [r3, #0]
 80605c2:	681b      	ldr	r3, [r3, #0]
 80605c4:	4770      	bx	lr
 80605c6:	bf00      	nop
 80605c8:	20000050 	.word	0x20000050
 80605cc:	2000005c 	.word	0x2000005c
 80605d0:	20000064 	.word	0x20000064
 80605d4:	20000074 	.word	0x20000074
 80605d8:	20000100 	.word	0x20000100
 80605dc:	00000000 	.word	0x00000000

080605e0 <SVC_Handler>:
 80605e0:	4b07      	ldr	r3, [pc, #28]	@ (8060600 <pxCurrentTCBConst2>)
 80605e2:	6819      	ldr	r1, [r3, #0]
 80605e4:	6808      	ldr	r0, [r1, #0]
 80605e6:	e8b0 4ff0 	ldmia.w	r0!, {r4, r5, r6, r7, r8, r9, sl, fp, lr}
 80605ea:	f380 8809 	msr	PSP, r0
 80605ee:	f3bf 8f6f 	isb	sy
 80605f2:	f04f 0000 	mov.w	r0, #0
 80605f6:	f380 8811 	msr	BASEPRI, r0
 80605fa:	4770      	bx	lr
 80605fc:	f3af 8000 	nop.w

08060600 <pxCurrentTCBConst2>:
 8060600:	20000100 	.word	0x20000100
	...

08060610 <PendSV_Handler>:
 8060610:	f3ef 8009 	mrs	r0, PSP
 8060614:	f3bf 8f6f 	isb	sy
 8060618:	4b15      	ldr	r3, [pc, #84]	@ (8060670 <pxCurrentTCBConst>)
 806061a:	681a      	ldr	r2, [r3, #0]
 806061c:	f01e 0f10 	tst.w	lr, #16
 8060620:	bf08      	it	eq
 8060622:	ed20 8a10 	vstmdbeq	r0!, {s16-s31}
 8060626:	e920 4ff0 	stmdb	r0!, {r4, r5, r6, r7, r8, r9, sl, fp, lr}
 806062a:	6010      	str	r0, [r2, #0]
 806062c:	e92d 0009 	stmdb	sp!, {r0, r3}
 8060630:	f04f 0050 	mov.w	r0, #80	@ 0x50
 8060634:	f380 8811 	msr	BASEPRI, r0
 8060638:	f3bf 8f4f 	dsb	sy
 806063c:	f3bf 8f6f 	isb	sy
 8060640:	f7ff ff92 	bl	8060568 <vTaskSwitchContext>
 8060644:	f04f 0000 	mov.w	r0, #0
 8060648:	f380 8811 	msr	BASEPRI, r0
 806064c:	bc09      	pop	{r0, r3}
 806064e:	6819      	ldr	r1, [r3, #0]
 8060650:	6808      	ldr	r0, [r1, #0]
 8060652:	e8b0 4ff0 	ldmia.w	r0!, {r4, r5, r6, r7, r8, r9, sl, fp, lr}
 8060656:	f01e 0f10 	tst.w	lr, #16
 806065a:	bf08      	it	eq
 806065c:	ecb0 8a10 	vldmiaeq	r0!, {s16-s31}
 8060660:	f380 8809 	msr	PSP, r0
 8060664:	f3bf 8f6f 	isb	sy
 8060668:	4770      	bx	lr
 806066a:	bf00      	nop
 806066c:	f3af 8000 	nop.w

08060670 <pxCurrentTCBConst>:
 8060670:	20000100 	.word	0x20000100

08060674 <SysTick_Handler>:
 8060674:	b508      	push	{r3, lr}
 8060676:	f04f 0350 	mov.w	r3, #80	@ 0x50
 806067a:	f383 8811 	msr	BASEPRI, r3
 806067e:	f3bf 8f6f 	isb	sy
 8060682:	f3bf 8f4f 	dsb	sy
 8060686:	f7ff ff5f 	bl	8060548 <xTaskIncrementTick>
 806068a:	b128      	cbz	r0, 8060698 <SysTick_Handler+0x24>
 806068c:	f04f 23e0 	mov.w	r3, #3758153728	@ 0xe000e000
 8060690:	f04f 5280 	mov.w	r2, #268435456	@ 0x10000000
 8060694:	f8c3 2d04 	str.w	r2, [r3, #3332]	@ 0xd04
 8060698:	2300      	movs	r3, #0
 806069a:	f383 8811 	msr	BASEPRI, r3
 806069e:	bd08      	pop	{r3, pc}

080606a0 <Reset_Handler>:
 80606a0:	f8df d034 	ldr.w	sp, [pc, #52]	@ 80606d8 <LoopFillZerobss+0xe>
 80606a4:	f7ff fe50 	bl	8060348 <SystemInit>
 80606a8:	480c      	ldr	r0, [pc, #48]	@ (80606dc <LoopFillZerobss+0x12>)
 80606aa:	490d      	ldr	r1, [pc, #52]	@ (80606e0 <LoopFillZerobss+0x16>)
 80606ac:	4a0d      	ldr	r2, [pc, #52]	@ (80606e4 <LoopFillZerobss+0x1a>)
 80606ae:	2300      	movs	r3, #0
 80606b0:	e002      	b.n	80606b8 <LoopCopyDataInit>

080606b2 <CopyDataInit>:
 80606b2:	58d4      	ldr	r4, [r2, r3]
 80606b4:	50c4      	str	r4, [r0, r3]
 80606b6:	3304      	adds	r3, #4

080606b8 <LoopCopyDataInit>:
 80606b8:	18c4      	adds	r4, r0, r3
 80606ba:	428c      	cmp	r4, r1
 80606bc:	d3f9      	bcc.n	80606b2 <CopyDataInit>
 80606be:	4a0a      	ldr	r2, [pc, #40]	@ (80606e8 <LoopFillZerobss+0x1e>)
 80606c0:	4c0a      	ldr	r4, [pc, #40]	@ (80606ec <LoopFillZerobss+0x22>)
 80606c2:	2300      	movs	r3, #0
 80606c4:	e001      	b.n	80606ca <LoopFillZerobss>

080606c6 <FillZerobss>:
 80606c6:	6013      	str	r3, [r2, #0]
 80606c8:	3204      	adds	r2, #4

080606ca <LoopFillZerobss>:
 80606ca:	42a2      	cmp	r2, r4
 80606cc:	d3fb      	bcc.n	80606c6 <FillZerobss>
 80606ce:	f000 f811 	bl	80606f4 <__libc_init_array>
 80606d2:	f7ff fd7d 	bl	80601d0 <main>
 80606d6:	4770      	bx	lr
 80606d8:	20020000 	.word	0x20020000
 80606dc:	20000000 	.word	0x20000000
 80606e0:	20000004 	.word	0x20000004
 80606e4:	08060754 	.word	0x08060754
 80606e8:	20000004 	.word	0x20000004
 80606ec:	20000104 	.word	0x20000104

080606f0 <ADC_IRQHandler>:
 80606f0:	e7fe      	b.n	80606f0 <ADC_IRQHandler>
	...

080606f4 <__libc_init_array>:
 80606f4:	b570      	push	{r4, r5, r6, lr}
 80606f6:	4b0d      	ldr	r3, [pc, #52]	@ (806072c <__libc_init_array+0x38>)
 80606f8:	4d0d      	ldr	r5, [pc, #52]	@ (8060730 <__libc_init_array+0x3c>)
 80606fa:	1b5b      	subs	r3, r3, r5
 80606fc:	109c      	asrs	r4, r3, #2
 80606fe:	2600      	movs	r6, #0
 8060700:	42a6      	cmp	r6, r4
 8060702:	d109      	bne.n	8060718 <__libc_init_array+0x24>
 8060704:	f000 f81a 	bl	806073c <_init>
 8060708:	4d0a      	ldr	r5, [pc, #40]	@ (8060734 <__libc_init_array+0x40>)
 806070a:	4b0b      	ldr	r3, [pc, #44]	@ (8060738 <__libc_init_array+0x44>)
 806070c:	1b5b      	subs	r3, r3, r5
 806070e:	109c      	asrs	r4, r3, #2
 8060710:	2600      	movs	r6, #0
 8060712:	42a6      	cmp	r6, r4
 8060714:	d105      	bne.n	8060722 <__libc_init_array+0x2e>
 8060716:	bd70      	pop	{r4, r5, r6, pc}
 8060718:	f855 3b04 	ldr.w	r3, [r5], #4
 806071c:	4798      	blx	r3
 806071e:	3601      	adds	r6, #1
 8060720:	e7ee      	b.n	8060700 <__libc_init_array+0xc>
 8060722:	f855 3b04 	ldr.w	r3, [r5], #4
 8060726:	4798      	blx	r3
 8060728:	3601      	adds	r6, #1
 806072a:	e7f2      	b.n	8060712 <__libc_init_array+0x1e>
	...

0806073c <_init>:
 806073c:	b5f8      	push	{r3, r4, r5, r6, r7, lr}
 806073e:	bf00      	nop
 8060740:	bcf8      	pop	{r3, r4, r5, r6, r7}
 8060742:	bc08      	pop	{r3}
 8060744:	469e      	mov	lr, r3
 8060746:	4770      	bx	lr

08060748 <_fini>:
 8060748:	b5f8      	push	{r3, r4, r5, r6, r7, lr}
 806074a:	bf00      	nop
 806074c:	bcf8      	pop	{r3, r4, r5, r6, r7}
 806074e:	bc08      	pop	{r3}
 8060750:	469e      	mov	lr, r3
 8060752:	4770      	bx	lr
